; Function Attrs: nounwind uwtable
define ptr @l_Lean_Meta_ArgsPacker_curryParam___rarg___lambda__2(ptr noundef %0, ptr noundef %1, ptr noundef %2, ptr noundef %3, ptr noundef %4, ptr readnone captures(none) %5, ptr noundef %6, ptr noundef %7, ptr noundef %8, ptr noundef %9, ptr noundef %10) local_unnamed_addr #1 {
  %12 = tail call ptr @l_Lean_Expr_bindingName_x21(ptr noundef %0) #7
  %13 = ptrtoint ptr %2 to i64
  %14 = and i64 %13, 1
  %.not = icmp eq i64 %14, 0
  br i1 %.not, label %15, label %lean_inc.exit23

15:                                               ; preds = %11
  %.val.i = load i32, ptr %2, align 4, !tbaa !8
  %16 = icmp sgt i32 %.val.i, 0
  br i1 %16, label %17, label %19, !prof !11

17:                                               ; preds = %15
  %18 = add nuw i32 %.val.i, 1
  store i32 %18, ptr %2, align 4, !tbaa !8
  br label %lean_inc.exit23

19:                                               ; preds = %15
  %.not.i = icmp eq i32 %.val.i, 0
  br i1 %.not.i, label %lean_inc.exit23, label %20

20:                                               ; preds = %19
  tail call void @lean_inc_ref_cold(ptr noundef nonnull %2) #7
  br label %lean_inc.exit23

lean_inc.exit23:                                  ; preds = %20, %19, %17, %11
  %21 = ptrtoint ptr %1 to i64
  %22 = and i64 %21, 1
  %.not27 = icmp eq i64 %22, 0
  br i1 %.not27, label %23, label %lean_inc.exit

23:                                               ; preds = %lean_inc.exit23
  %.val.i24 = load i32, ptr %1, align 4, !tbaa !8
  %24 = icmp sgt i32 %.val.i24, 0
  br i1 %24, label %25, label %27, !prof !11

25:                                               ; preds = %23
  %26 = add nuw i32 %.val.i24, 1
  store i32 %26, ptr %1, align 4, !tbaa !8
  br label %lean_inc.exit

27:                                               ; preds = %23
  %.not.i25 = icmp eq i32 %.val.i24, 0
  br i1 %.not.i25, label %lean_inc.exit, label %28

28:                                               ; preds = %27
  tail call void @lean_inc_ref_cold(ptr noundef nonnull %1) #7
  br label %lean_inc.exit

lean_inc.exit:                                    ; preds = %28, %27, %25, %lean_inc.exit23
  tail call void @lean_inc_heartbeat() #7
  %29 = tail call noalias ptr @mi_malloc_small(i64 noundef 64) #7
  %30 = icmp eq ptr %29, null
  br i1 %30, label %31, label %lean_alloc_closure.exit

31:                                               ; preds = %lean_inc.exit
  tail call void @lean_internal_panic_out_of_memory() #8
  unreachable

lean_alloc_closure.exit:                          ; preds = %lean_inc.exit
  %32 = getelementptr inbounds nuw i8, ptr %29, i64 4
  store i32 1, ptr %29, align 4, !tbaa !8
  store i32 -184549312, ptr %32, align 4
  %33 = getelementptr inbounds nuw i8, ptr %29, i64 8
  store ptr @l_Lean_Meta_ArgsPacker_curryParam___rarg___lambda__1___boxed, ptr %33, align 8, !tbaa !12
  %34 = getelementptr inbounds nuw i8, ptr %29, i64 16
  store i16 11, ptr %34, align 8, !tbaa !16
  %35 = getelementptr inbounds nuw i8, ptr %29, i64 18
  store i16 5, ptr %35, align 2, !tbaa !16
  %36 = getelementptr inbounds nuw i8, ptr %29, i64 24
  store ptr %1, ptr %36, align 8, !tbaa !12
  %37 = getelementptr inbounds nuw i8, ptr %29, i64 32
  store ptr %2, ptr %37, align 8, !tbaa !12
  %38 = getelementptr inbounds nuw i8, ptr %29, i64 40
  store ptr %0, ptr %38, align 8, !tbaa !12
  %39 = getelementptr inbounds nuw i8, ptr %29, i64 48
  store ptr %3, ptr %39, align 8, !tbaa !12
  %40 = getelementptr inbounds nuw i8, ptr %29, i64 56
  store ptr %4, ptr %40, align 8, !tbaa !12
  %41 = tail call ptr @l___private_Lean_Meta_ArgsPacker_0__Lean_Meta_ArgsPacker_withCurriedDecl___rarg(ptr noundef %1, ptr noundef %12, ptr noundef %2, ptr noundef nonnull %29, ptr noundef %6, ptr noundef %7, ptr noundef %8, ptr noundef %9, ptr noundef %10)
  ret ptr %41
}